target datalayout = "e-m:e-p270:32:32-p271:32:32-p272:64:64-i64:64-i128:128-f80:128-n8:16:32:64-S128"
target triple = "x86_64-pc-linux-gnu"

%struct.AVProbeData = type { ptr, ptr, i32, ptr }

; Function Attrs: nounwind uwtable
define internal i32 @apm_probe(ptr noundef %0) #0 {
  %2 = alloca i32, align 4
  %3 = alloca ptr, align 8
  store ptr %0, ptr %3, align 8, !tbaa !4
  %4 = load ptr, ptr %3, align 8, !tbaa !4
  %5 = getelementptr inbounds nuw %struct.AVProbeData, ptr %4, i32 0, i32 1
  %6 = load ptr, ptr %5, align 8, !tbaa !9
  %7 = load i16, ptr %6, align 1, !tbaa !13
  %8 = zext i16 %7 to i32
  %9 = icmp ne i32 %8, 8192
  br i1 %9, label %10, label %11

10:                                               ; preds = %1
  store i32 0, ptr %2, align 4
  br label %34

11:                                               ; preds = %1
  %12 = load ptr, ptr %3, align 8, !tbaa !4
  %13 = getelementptr inbounds nuw %struct.AVProbeData, ptr %12, i32 0, i32 2
  %14 = load i32, ptr %13, align 8, !tbaa !14
  %15 = icmp slt i32 %14, 100
  br i1 %15, label %16, label %17

16:                                               ; preds = %11
  store i32 0, ptr %2, align 4
  br label %34

17:                                               ; preds = %11
  %18 = load ptr, ptr %3, align 8, !tbaa !4
  %19 = getelementptr inbounds nuw %struct.AVProbeData, ptr %18, i32 0, i32 1
  %20 = load ptr, ptr %19, align 8, !tbaa !9
  %21 = getelementptr inbounds i8, ptr %20, i64 20
  %22 = load i32, ptr %21, align 1, !tbaa !13
  %23 = icmp ne i32 %22, 842101622
  br i1 %23, label %24, label %25

24:                                               ; preds = %17
  store i32 0, ptr %2, align 4
  br label %34

25:                                               ; preds = %17
  %26 = load ptr, ptr %3, align 8, !tbaa !4
  %27 = getelementptr inbounds nuw %struct.AVProbeData, ptr %26, i32 0, i32 1
  %28 = load ptr, ptr %27, align 8, !tbaa !9
  %29 = getelementptr inbounds i8, ptr %28, i64 96
  %30 = load i32, ptr %29, align 1, !tbaa !13
  %31 = icmp ne i32 %30, 1096040772
  br i1 %31, label %32, label %33

32:                                               ; preds = %25
  store i32 0, ptr %2, align 4
  br label %34

33:                                               ; preds = %25
  store i32 99, ptr %2, align 4
  br label %34

34:                                               ; preds = %33, %32, %24, %16, %10
  %35 = load i32, ptr %2, align 4
  ret i32 %35
}