; Function Attrs: mustprogress nofree norecurse nosync nounwind willreturn memory(read, inaccessiblemem: none) uwtable
define internal range(i32 0, 100) i32 @apm_probe(ptr noundef readonly captures(none) %0) #0 {
  %2 = getelementptr inbounds nuw i8, ptr %0, i64 8
  %3 = load ptr, ptr %2, align 8, !tbaa !4
  %4 = load i16, ptr %3, align 1, !tbaa !11
  %.not = icmp eq i16 %4, 8192
  br i1 %.not, label %5, label %15

5:                                                ; preds = %1
  %6 = getelementptr inbounds nuw i8, ptr %0, i64 16
  %7 = load i32, ptr %6, align 8, !tbaa !12
  %8 = icmp slt i32 %7, 100
  br i1 %8, label %15, label %9

9:                                                ; preds = %5
  %10 = getelementptr inbounds nuw i8, ptr %3, i64 20
  %11 = load i32, ptr %10, align 1, !tbaa !11
  %.not4 = icmp eq i32 %11, 842101622
  br i1 %.not4, label %12, label %15

12:                                               ; preds = %9
  %13 = getelementptr inbounds nuw i8, ptr %3, i64 96
  %14 = load i32, ptr %13, align 1, !tbaa !11
  %.not5 = icmp eq i32 %14, 1096040772
  %. = select i1 %.not5, i32 99, i32 0
  br label %15

15:                                               ; preds = %12, %9, %5, %1
  %.0 = phi i32 [ 0, %1 ], [ 0, %5 ], [ 0, %9 ], [ %., %12 ]
  ret i32 %.0
}